; ModuleID = 'source-C-CXX/30/515.c'
source_filename = "source-C-CXX/30/515.c"
target datalayout = "e-m:e-p270:32:32-p271:32:32-p272:64:64-i64:64-f80:128-n8:16:32:64-S128"
target triple = "x86_64-pc-linux-gnu"

%struct.Stu = type { [100 x i8], %struct.Stu* }

@.str = private unnamed_addr constant [4 x i8] c"end\00", align 1

; Function Attrs: nounwind sspstrong uwtable
define dso_local i32 @main() local_unnamed_addr #0 {
  %1 = tail call noalias align 16 dereferenceable_or_null(100) i8* @malloc(i64 100) #5
  %2 = bitcast i8* %1 to %struct.Stu*
  %3 = getelementptr inbounds %struct.Stu, %struct.Stu* %2, i64 0, i32 0, i64 0
  %4 = tail call i32 (i8*, ...) bitcast (i32 (...)* @gets to i32 (i8*, ...)*)(i8* %3) #5
  %5 = getelementptr inbounds %struct.Stu, %struct.Stu* %2, i64 0, i32 1
  store %struct.Stu* null, %struct.Stu** %5, align 8, !tbaa !5
  br label %6

6:                                                ; preds = %6, %0
  %7 = phi %struct.Stu* [ %2, %0 ], [ %9, %6 ]
  %8 = tail call noalias align 16 dereferenceable_or_null(100) i8* @malloc(i64 100) #5
  %9 = bitcast i8* %8 to %struct.Stu*
  %10 = getelementptr inbounds %struct.Stu, %struct.Stu* %9, i64 0, i32 0, i64 0
  %11 = tail call i32 (i8*, ...) bitcast (i32 (...)* @gets to i32 (i8*, ...)*)(i8* %10) #5
  %12 = getelementptr inbounds %struct.Stu, %struct.Stu* %9, i64 0, i32 1
  store %struct.Stu* %7, %struct.Stu** %12, align 8, !tbaa !5
  %13 = tail call i32 @strcmp(i8* noundef nonnull dereferenceable(1) %10, i8* noundef nonnull dereferenceable(4) getelementptr inbounds ([4 x i8], [4 x i8]* @.str, i64 0, i64 0)) #6
  %14 = icmp eq i32 %13, 0
  br i1 %14, label %15, label %6

15:                                               ; preds = %6, %15
  %16 = phi %struct.Stu* [ %20, %15 ], [ %7, %6 ]
  %17 = getelementptr inbounds %struct.Stu, %struct.Stu* %16, i64 0, i32 0, i64 0
  %18 = tail call i32 @puts(i8* nonnull dereferenceable(1) %17)
  %19 = getelementptr inbounds %struct.Stu, %struct.Stu* %16, i64 0, i32 1
  %20 = load %struct.Stu*, %struct.Stu** %19, align 8, !tbaa !5
  %21 = icmp eq %struct.Stu* %20, null
  br i1 %21, label %22, label %15

22:                                               ; preds = %15
  ret i32 0
}

; Function Attrs: inaccessiblememonly mustprogress nofree nounwind willreturn
declare noalias noundef align 16 i8* @malloc(i64 noundef) local_unnamed_addr #1

declare i32 @gets(...) local_unnamed_addr #2

; Function Attrs: argmemonly mustprogress nofree nounwind readonly willreturn
declare i32 @strcmp(i8* nocapture, i8* nocapture) local_unnamed_addr #3

; Function Attrs: nofree nounwind
declare noundef i32 @puts(i8* nocapture noundef readonly) local_unnamed_addr #4


!llvm.module.flags = !{!0, !1, !2, !3}
!llvm.ident = !{!4}

!0 = !{i32 1, !"wchar_size", i32 4}
!1 = !{i32 7, !"PIC Level", i32 2}
!2 = !{i32 7, !"PIE Level", i32 2}
!3 = !{i32 7, !"uwtable", i32 1}
!4 = !{!"clang version 13.0.0"}
!5 = !{!6, !9, i64 104}
!6 = !{!"Stu", !7, i64 0, !9, i64 104}
!7 = !{!"omnipotent char", !8, i64 0}
!8 = !{!"Simple C/C++ TBAA"}
!9 = !{!"any pointer", !7, i64 0}
